target datalayout = "e-m:e-p270:32:32-p271:32:32-p272:64:64-i64:64-i128:128-f80:128-n8:16:32:64-S128"
target triple = "x86_64-pc-linux-gnu"

%"class.std::__cxx11::basic_string" = type { %"struct.std::__cxx11::basic_string<char>::_Alloc_hider", i64, %union.anon }
%"struct.std::__cxx11::basic_string<char>::_Alloc_hider" = type { ptr }
%union.anon = type { i64, [8 x i8] }
%"class.std::allocator" = type { i8 }
%"class.std::__shared_count" = type { ptr }
%"class.std::basic_string_view" = type { i64, ptr }
%"struct.nix::flake::LockFile" = type { %"class.nix::ref.130" }
%"class.nix::ref.130" = type { %"class.std::shared_ptr.131" }
%"class.std::shared_ptr.131" = type { %"class.std::__shared_ptr.132" }
%"class.std::__shared_ptr.132" = type { ptr, %"class.std::__shared_count" }

@.str.117 = private unnamed_addr constant [3 x i8] c"%s\00", align 1

; Function Attrs: mustprogress nounwind uwtable
define linkonce_odr noundef ptr @_ZNKSt7__cxx1112basic_stringIcSt11char_traitsIcESaIcEE7_M_dataEv(ptr noundef nonnull align 8 dereferenceable(32) %0) #2 comdat align 2 {
  %2 = alloca ptr, align 8
  store ptr %0, ptr %2, align 8
  %3 = load ptr, ptr %2, align 8
  %4 = getelementptr inbounds %"class.std::__cxx11::basic_string", ptr %3, i32 0, i32 0
  %5 = getelementptr inbounds %"struct.std::__cxx11::basic_string<char>::_Alloc_hider", ptr %4, i32 0, i32 0
  %6 = load ptr, ptr %5, align 8
  ret ptr %6
}

; Function Attrs: mustprogress nounwind uwtable
define linkonce_odr void @_ZNSt17basic_string_viewIcSt11char_traitsIcEEC2EPKcm(ptr noundef nonnull align 8 dereferenceable(16) %0, ptr noundef %1, i64 noundef %2) unnamed_addr #2 comdat align 2 {
  %4 = alloca ptr, align 8
  %5 = alloca ptr, align 8
  %6 = alloca i64, align 8
  store ptr %0, ptr %4, align 8
  store ptr %1, ptr %5, align 8
  store i64 %2, ptr %6, align 8
  %7 = load ptr, ptr %4, align 8
  %8 = getelementptr inbounds %"class.std::basic_string_view", ptr %7, i32 0, i32 0
  %9 = load i64, ptr %6, align 8
  store i64 %9, ptr %8, align 8
  %10 = getelementptr inbounds %"class.std::basic_string_view", ptr %7, i32 0, i32 1
  %11 = load ptr, ptr %5, align 8
  store ptr %11, ptr %10, align 8
  ret void
}

; Function Attrs: mustprogress nounwind uwtable
define linkonce_odr noundef i64 @_ZNKSt7__cxx1112basic_stringIcSt11char_traitsIcESaIcEE4sizeEv(ptr noundef nonnull align 8 dereferenceable(32) %0) #2 comdat align 2 {
  %2 = alloca ptr, align 8
  store ptr %0, ptr %2, align 8
  %3 = load ptr, ptr %2, align 8
  %4 = getelementptr inbounds %"class.std::__cxx11::basic_string", ptr %3, i32 0, i32 1
  %5 = load i64, ptr %4, align 8
  ret i64 %5
}

; Function Attrs: mustprogress nounwind uwtable
define linkonce_odr noundef ptr @_ZNKSt7__cxx1112basic_stringIcSt11char_traitsIcESaIcEE4dataEv(ptr noundef nonnull align 8 dereferenceable(32) %0) #2 comdat align 2 {
  %2 = alloca ptr, align 8
  store ptr %0, ptr %2, align 8
  %3 = load ptr, ptr %2, align 8
  %4 = call noundef ptr @_ZNKSt7__cxx1112basic_stringIcSt11char_traitsIcESaIcEE7_M_dataEv(ptr noundef nonnull align 8 dereferenceable(32) %3)
  ret ptr %4
}

; Function Attrs: mustprogress uwtable
define linkonce_odr void @_ZN3nix5flake8LockFileC2Ev(ptr noundef nonnull align 8 dereferenceable(16) %0) unnamed_addr #5 comdat align 2 {
  %2 = alloca ptr, align 8
  store ptr %0, ptr %2, align 8
  %3 = load ptr, ptr %2, align 8
  %4 = getelementptr inbounds %"struct.nix::flake::LockFile", ptr %3, i32 0, i32 0
  call void @_ZN3nix8make_refINS_5flake4NodeEJEEENS_3refIT_EEDpOT0_(ptr dead_on_unwind writable sret(%"class.nix::ref.130") align 8 %4)
  ret void
}

; Function Attrs: mustprogress nounwind uwtable
define linkonce_odr { i64, ptr } @_ZNKSt7__cxx1112basic_stringIcSt11char_traitsIcESaIcEEcvSt17basic_string_viewIcS2_EEv(ptr noundef nonnull align 8 dereferenceable(32) %0) #2 comdat align 2 {
  %2 = alloca %"class.std::basic_string_view", align 8
  %3 = alloca ptr, align 8
  store ptr %0, ptr %3, align 8
  %4 = load ptr, ptr %3, align 8
  %5 = call noundef ptr @_ZNKSt7__cxx1112basic_stringIcSt11char_traitsIcESaIcEE4dataEv(ptr noundef nonnull align 8 dereferenceable(32) %4) #1
  %6 = call noundef i64 @_ZNKSt7__cxx1112basic_stringIcSt11char_traitsIcESaIcEE4sizeEv(ptr noundef nonnull align 8 dereferenceable(32) %4) #1
  call void @_ZNSt17basic_string_viewIcSt11char_traitsIcEEC2EPKcm(ptr noundef nonnull align 8 dereferenceable(16) %2, ptr noundef %5, i64 noundef %6) #1
  %7 = load { i64, ptr }, ptr %2, align 8
  ret { i64, ptr } %7
}

; Function Attrs: mustprogress uwtable
define internal void @_ZN3nix5flakeL12readLockFileERKNS_10SourcePathE(ptr dead_on_unwind noalias writable sret(%"struct.nix::flake::LockFile") align 8 %0, ptr noundef nonnull align 8 dereferenceable(48) %1) #5 personality ptr @__gxx_personality_v0 {
  %3 = alloca ptr, align 8
  %4 = alloca ptr, align 8
  %5 = alloca %"class.std::basic_string_view", align 8
  %6 = alloca %"class.std::__cxx11::basic_string", align 8
  %7 = alloca i1, align 1
  %8 = alloca %"class.std::basic_string_view", align 8
  %9 = alloca %"class.std::__cxx11::basic_string", align 8
  %10 = alloca %"class.std::__cxx11::basic_string", align 8
  %11 = alloca %"class.std::allocator", align 1
  %12 = alloca i1, align 1
  %13 = alloca ptr, align 8
  %14 = alloca i32, align 4
  %15 = alloca i1, align 1
  %16 = alloca i1, align 1
  store ptr %0, ptr %3, align 8
  store ptr %1, ptr %4, align 8
  %17 = load ptr, ptr %4, align 8
  %18 = call noundef zeroext i1 @_ZNK3nix10SourcePath10pathExistsEv(ptr noundef nonnull align 8 dereferenceable(48) %17)
  store i1 false, ptr %7, align 1
  store i1 false, ptr %12, align 1
  store i1 false, ptr %15, align 1
  store i1 false, ptr %16, align 1
  br i1 %18, label %19, label %43

19:                                               ; preds = %2
  %20 = load ptr, ptr %4, align 8
  call void @_ZNK3nix10SourcePath8readFileB5cxx11Ev(ptr dead_on_unwind writable sret(%"class.std::__cxx11::basic_string") align 8 %6, ptr noundef nonnull align 8 dereferenceable(48) %20)
  store i1 true, ptr %7, align 1
  %21 = call { i64, ptr } @_ZNKSt7__cxx1112basic_stringIcSt11char_traitsIcESaIcEEcvSt17basic_string_viewIcS2_EEv(ptr noundef nonnull align 8 dereferenceable(32) %6) #1
  %22 = getelementptr inbounds { i64, ptr }, ptr %5, i32 0, i32 0
  %23 = extractvalue { i64, ptr } %21, 0
  store i64 %23, ptr %22, align 8
  %24 = getelementptr inbounds { i64, ptr }, ptr %5, i32 0, i32 1
  %25 = extractvalue { i64, ptr } %21, 1
  store ptr %25, ptr %24, align 8
  call void @_ZNSaIcEC1Ev(ptr noundef nonnull align 1 dereferenceable(1) %11) #1
  store i1 true, ptr %12, align 1
  invoke void @_ZNSt7__cxx1112basic_stringIcSt11char_traitsIcESaIcEEC2IS3_EEPKcRKS3_(ptr noundef nonnull align 8 dereferenceable(32) %10, ptr noundef @.str.117, ptr noundef nonnull align 1 dereferenceable(1) %11)
          to label %26 unwind label %58

26:                                               ; preds = %19
  store i1 true, ptr %15, align 1
  %27 = load ptr, ptr %4, align 8
  invoke void @_ZN3nix3fmtIJNS_10SourcePathEEEENSt7__cxx1112basic_stringIcSt11char_traitsIcESaIcEEERKS7_DpRKT_(ptr dead_on_unwind writable sret(%"class.std::__cxx11::basic_string") align 8 %9, ptr noundef nonnull align 8 dereferenceable(32) %10, ptr noundef nonnull align 8 dereferenceable(48) %27)
          to label %28 unwind label %62

28:                                               ; preds = %26
  store i1 true, ptr %16, align 1
  %29 = call { i64, ptr } @_ZNKSt7__cxx1112basic_stringIcSt11char_traitsIcESaIcEEcvSt17basic_string_viewIcS2_EEv(ptr noundef nonnull align 8 dereferenceable(32) %9) #1
  %30 = getelementptr inbounds { i64, ptr }, ptr %8, i32 0, i32 0
  %31 = extractvalue { i64, ptr } %29, 0
  store i64 %31, ptr %30, align 8
  %32 = getelementptr inbounds { i64, ptr }, ptr %8, i32 0, i32 1
  %33 = extractvalue { i64, ptr } %29, 1
  store ptr %33, ptr %32, align 8
  %34 = getelementptr inbounds { i64, ptr }, ptr %5, i32 0, i32 0
  %35 = load i64, ptr %34, align 8
  %36 = getelementptr inbounds { i64, ptr }, ptr %5, i32 0, i32 1
  %37 = load ptr, ptr %36, align 8
  %38 = getelementptr inbounds { i64, ptr }, ptr %8, i32 0, i32 0
  %39 = load i64, ptr %38, align 8
  %40 = getelementptr inbounds { i64, ptr }, ptr %8, i32 0, i32 1
  %41 = load ptr, ptr %40, align 8
  invoke void @_ZN3nix5flake8LockFileC1ESt17basic_string_viewIcSt11char_traitsIcEES5_(ptr noundef nonnull align 8 dereferenceable(16) %0, i64 %35, ptr %37, i64 %39, ptr %41)
          to label %42 unwind label %66

42:                                               ; preds = %28
  br label %45

43:                                               ; preds = %2
  invoke void @_ZN3nix5flake8LockFileC2Ev(ptr noundef nonnull align 8 dereferenceable(16) %0)
          to label %44 unwind label %66

44:                                               ; preds = %43
  br label %45

45:                                               ; preds = %44, %42
  %46 = load i1, ptr %16, align 1
  br i1 %46, label %47, label %48

47:                                               ; preds = %45
  call void @_ZNSt7__cxx1112basic_stringIcSt11char_traitsIcESaIcEED2Ev(ptr noundef nonnull align 8 dereferenceable(32) %9) #1
  br label %48

48:                                               ; preds = %47, %45
  %49 = load i1, ptr %15, align 1
  br i1 %49, label %50, label %51

50:                                               ; preds = %48
  call void @_ZNSt7__cxx1112basic_stringIcSt11char_traitsIcESaIcEED2Ev(ptr noundef nonnull align 8 dereferenceable(32) %10) #1
  br label %51

51:                                               ; preds = %50, %48
  %52 = load i1, ptr %12, align 1
  br i1 %52, label %53, label %54

53:                                               ; preds = %51
  call void @_ZNSaIcED1Ev(ptr noundef nonnull align 1 dereferenceable(1) %11) #1
  br label %54

54:                                               ; preds = %53, %51
  %55 = load i1, ptr %7, align 1
  br i1 %55, label %56, label %57

56:                                               ; preds = %54
  call void @_ZNSt7__cxx1112basic_stringIcSt11char_traitsIcESaIcEED2Ev(ptr noundef nonnull align 8 dereferenceable(32) %6) #1
  br label %57

57:                                               ; preds = %56, %54
  ret void

58:                                               ; preds = %19
  %59 = landingpad { ptr, i32 }
          cleanup
  %60 = extractvalue { ptr, i32 } %59, 0
  store ptr %60, ptr %13, align 8
  %61 = extractvalue { ptr, i32 } %59, 1
  store i32 %61, ptr %14, align 4
  br label %77

62:                                               ; preds = %26
  %63 = landingpad { ptr, i32 }
          cleanup
  %64 = extractvalue { ptr, i32 } %63, 0
  store ptr %64, ptr %13, align 8
  %65 = extractvalue { ptr, i32 } %63, 1
  store i32 %65, ptr %14, align 4
  br label %73

66:                                               ; preds = %43, %28
  %67 = landingpad { ptr, i32 }
          cleanup
  %68 = extractvalue { ptr, i32 } %67, 0
  store ptr %68, ptr %13, align 8
  %69 = extractvalue { ptr, i32 } %67, 1
  store i32 %69, ptr %14, align 4
  %70 = load i1, ptr %16, align 1
  br i1 %70, label %71, label %72

71:                                               ; preds = %66
  call void @_ZNSt7__cxx1112basic_stringIcSt11char_traitsIcESaIcEED2Ev(ptr noundef nonnull align 8 dereferenceable(32) %9) #1
  br label %72

72:                                               ; preds = %71, %66
  br label %73

73:                                               ; preds = %72, %62
  %74 = load i1, ptr %15, align 1
  br i1 %74, label %75, label %76

75:                                               ; preds = %73
  call void @_ZNSt7__cxx1112basic_stringIcSt11char_traitsIcESaIcEED2Ev(ptr noundef nonnull align 8 dereferenceable(32) %10) #1
  br label %76

76:                                               ; preds = %75, %73
  br label %77

77:                                               ; preds = %76, %58
  %78 = load i1, ptr %12, align 1
  br i1 %78, label %79, label %80

79:                                               ; preds = %77
  call void @_ZNSaIcED1Ev(ptr noundef nonnull align 1 dereferenceable(1) %11) #1
  br label %80

80:                                               ; preds = %79, %77
  %81 = load i1, ptr %7, align 1
  br i1 %81, label %82, label %83

82:                                               ; preds = %80
  call void @_ZNSt7__cxx1112basic_stringIcSt11char_traitsIcESaIcEED2Ev(ptr noundef nonnull align 8 dereferenceable(32) %6) #1
  br label %83

83:                                               ; preds = %82, %80
  br label %84

84:                                               ; preds = %83
  %85 = load ptr, ptr %13, align 8
  %86 = load i32, ptr %14, align 4
  %87 = insertvalue { ptr, i32 } poison, ptr %85, 0
  %88 = insertvalue { ptr, i32 } %87, i32 %86, 1
  resume { ptr, i32 } %88
}